target datalayout = "e-m:e-p270:32:32-p271:32:32-p272:64:64-i64:64-i128:128-f80:128-n8:16:32:64-S128"
target triple = "x86_64-pc-linux-gnu"

%struct.PgStat_LocalState = type { ptr, ptr, ptr, %struct.PgStat_Snapshot }
%struct.PgStat_Snapshot = type { i32, i64, [13 x i8], %struct.PgStat_ArchiverStats, %struct.PgStat_BgWriterStats, %struct.PgStat_CheckpointerStats, %struct.PgStat_IO, [8 x %struct.PgStat_SLRUStats], %struct.PgStat_WalStats, [129 x i8], [129 x ptr], ptr, ptr }
%struct.PgStat_ArchiverStats = type { i64, [41 x i8], i64, i64, [41 x i8], i64, i64 }
%struct.PgStat_BgWriterStats = type { i64, i64, i64, i64 }
%struct.PgStat_CheckpointerStats = type { i64, i64, i64, i64, i64, i64, i64, i64, i64, i64, i64 }
%struct.PgStat_IO = type { i64, [17 x %struct.PgStat_BktypeIO] }
%struct.PgStat_BktypeIO = type { [3 x [5 x [8 x i64]]], [3 x [5 x [8 x i64]]], [3 x [5 x [8 x i64]]] }
%struct.PgStat_SLRUStats = type { i64, i64, i64, i64, i64, i64, i64, i64 }
%struct.PgStat_WalStats = type { i64, i64, i64, i64, i64, i64, i64, i64, i64 }
%struct.PgStat_KindInfo = type { i8, i32, i32, i32, i32, i32, i32, ptr, ptr, ptr, ptr, ptr, ptr, ptr, ptr, ptr, ptr, ptr, ptr }
%struct.LWLock = type { i16, %struct.pg_atomic_uint32, %struct.proclist_head }
%struct.pg_atomic_uint32 = type { i32 }
%struct.proclist_head = type { i32, i32 }
%struct.PgStatShared_HashEntry = type { %struct.PgStat_HashKey, i8, %struct.pg_atomic_uint32, %struct.pg_atomic_uint32, i64 }
%struct.PgStat_HashKey = type { i32, i32, i64 }
%struct.PgStatShared_Common = type { i32, %struct.LWLock }

@pgStatLocal = external global %struct.PgStat_LocalState, align 8

; Function Attrs: inlinehint nounwind uwtable
define internal void @pg_atomic_init_u32_impl(ptr noundef %0, i32 noundef %1) #3 {
  %3 = alloca ptr, align 8
  %4 = alloca i32, align 4
  store ptr %0, ptr %3, align 8
  store i32 %1, ptr %4, align 4
  %5 = load i32, ptr %4, align 4
  %6 = load ptr, ptr %3, align 8
  %7 = getelementptr inbounds nuw %struct.pg_atomic_uint32, ptr %6, i32 0, i32 0
  store volatile i32 %5, ptr %7, align 4
  ret void
}

; Function Attrs: inlinehint nounwind uwtable
define internal void @pg_atomic_init_u32(ptr noundef %0, i32 noundef %1) #3 {
  %3 = alloca ptr, align 8
  %4 = alloca i32, align 4
  store ptr %0, ptr %3, align 8
  store i32 %1, ptr %4, align 4
  %5 = load ptr, ptr %3, align 8
  %6 = load i32, ptr %4, align 4
  call void @pg_atomic_init_u32_impl(ptr noundef %5, i32 noundef %6)
  ret void
}

; Function Attrs: nounwind uwtable
define dso_local ptr @pgstat_init_entry(i32 noundef %0, ptr noundef %1) #0 {
  %3 = alloca i32, align 4
  %4 = alloca ptr, align 8
  %5 = alloca i64, align 8
  %6 = alloca ptr, align 8
  store i32 %0, ptr %3, align 4
  store ptr %1, ptr %4, align 8
  call void @llvm.lifetime.start.p0(i64 8, ptr %5) #10
  call void @llvm.lifetime.start.p0(i64 8, ptr %6) #10
  %7 = load ptr, ptr %4, align 8
  %8 = getelementptr inbounds nuw %struct.PgStatShared_HashEntry, ptr %7, i32 0, i32 2
  call void @pg_atomic_init_u32(ptr noundef %8, i32 noundef 1)
  %9 = load ptr, ptr %4, align 8
  %10 = getelementptr inbounds nuw %struct.PgStatShared_HashEntry, ptr %9, i32 0, i32 3
  call void @pg_atomic_init_u32(ptr noundef %10, i32 noundef 0)
  %11 = load ptr, ptr %4, align 8
  %12 = getelementptr inbounds nuw %struct.PgStatShared_HashEntry, ptr %11, i32 0, i32 1
  store i8 0, ptr %12, align 8
  %13 = load ptr, ptr getelementptr inbounds nuw (%struct.PgStat_LocalState, ptr @pgStatLocal, i32 0, i32 1), align 8
  %14 = load i32, ptr %3, align 4
  %15 = call ptr @pgstat_get_kind_info(i32 noundef %14)
  %16 = getelementptr inbounds nuw %struct.PgStat_KindInfo, ptr %15, i32 0, i32 1
  %17 = load i32, ptr %16, align 4
  %18 = zext i32 %17 to i64
  %19 = call i64 @dsa_allocate_extended(ptr noundef %13, i64 noundef %18, i32 noundef 4)
  store i64 %19, ptr %5, align 8
  %20 = load ptr, ptr getelementptr inbounds nuw (%struct.PgStat_LocalState, ptr @pgStatLocal, i32 0, i32 1), align 8
  %21 = load i64, ptr %5, align 8
  %22 = call ptr @dsa_get_address(ptr noundef %20, i64 noundef %21)
  store ptr %22, ptr %6, align 8
  %23 = load ptr, ptr %6, align 8
  %24 = getelementptr inbounds nuw %struct.PgStatShared_Common, ptr %23, i32 0, i32 0
  store i32 -559038737, ptr %24, align 4
  %25 = load i64, ptr %5, align 8
  %26 = load ptr, ptr %4, align 8
  %27 = getelementptr inbounds nuw %struct.PgStatShared_HashEntry, ptr %26, i32 0, i32 4
  store i64 %25, ptr %27, align 8
  %28 = load ptr, ptr %6, align 8
  %29 = getelementptr inbounds nuw %struct.PgStatShared_Common, ptr %28, i32 0, i32 1
  call void @LWLockInitialize(ptr noundef %29, i32 noundef 79)
  %30 = load ptr, ptr %6, align 8
  call void @llvm.lifetime.end.p0(i64 8, ptr %6) #10
  call void @llvm.lifetime.end.p0(i64 8, ptr %5) #10
  ret ptr %30
}