; Function Attrs: nounwind uwtable
define dso_local noundef ptr @pgstat_init_entry(i32 noundef %0, ptr noundef %1) local_unnamed_addr #0 {
  %3 = getelementptr inbounds nuw i8, ptr %1, i64 20
  store volatile i32 1, ptr %3, align 4
  %4 = getelementptr inbounds nuw i8, ptr %1, i64 24
  store volatile i32 0, ptr %4, align 4
  %5 = getelementptr inbounds nuw i8, ptr %1, i64 16
  store i8 0, ptr %5, align 8
  %6 = load ptr, ptr getelementptr inbounds nuw (i8, ptr @pgStatLocal, i64 8), align 8
  %7 = tail call ptr @pgstat_get_kind_info(i32 noundef %0) #15
  %8 = getelementptr inbounds nuw i8, ptr %7, i64 4
  %9 = load i32, ptr %8, align 4
  %10 = zext i32 %9 to i64
  %11 = tail call i64 @dsa_allocate_extended(ptr noundef %6, i64 noundef %10, i32 noundef 4) #15
  %12 = load ptr, ptr getelementptr inbounds nuw (i8, ptr @pgStatLocal, i64 8), align 8
  %13 = tail call ptr @dsa_get_address(ptr noundef %12, i64 noundef %11) #15
  store i32 -559038737, ptr %13, align 4
  %14 = getelementptr inbounds nuw i8, ptr %1, i64 32
  store i64 %11, ptr %14, align 8
  %15 = getelementptr inbounds nuw i8, ptr %13, i64 4
  tail call void @LWLockInitialize(ptr noundef nonnull %15, i32 noundef 79) #15
  ret ptr %13
}